target datalayout = "e-m:e-p270:32:32-p271:32:32-p272:64:64-i64:64-i128:128-f80:128-n8:16:32:64-S128"
target triple = "x86_64-pc-linux-gnu"

; Function Attrs: nounwind uwtable
define i32 @OPENSSL_strtoul(ptr noundef %0, ptr noundef %1, i32 noundef %2, ptr noundef %3) #0 {
  %5 = alloca i32, align 4
  %6 = alloca ptr, align 8
  %7 = alloca ptr, align 8
  %8 = alloca i32, align 4
  %9 = alloca ptr, align 8
  %10 = alloca ptr, align 8
  %11 = alloca ptr, align 8
  %12 = alloca i32, align 4
  store ptr %0, ptr %6, align 8, !tbaa !3
  store ptr %1, ptr %7, align 8, !tbaa !18
  store i32 %2, ptr %8, align 4, !tbaa !8
  store ptr %3, ptr %9, align 8, !tbaa !20
  call void @llvm.lifetime.start.p0(i64 8, ptr %10) #8
  call void @llvm.lifetime.start.p0(i64 8, ptr %11) #8
  %13 = load ptr, ptr %7, align 8, !tbaa !18
  %14 = icmp eq ptr %13, null
  br i1 %14, label %15, label %16

15:                                               ; preds = %4
  br label %18

16:                                               ; preds = %4
  %17 = load ptr, ptr %7, align 8, !tbaa !18
  br label %18

18:                                               ; preds = %16, %15
  %19 = phi ptr [ %10, %15 ], [ %17, %16 ]
  store ptr %19, ptr %11, align 8, !tbaa !18
  %20 = call ptr @__errno_location() #10
  store i32 0, ptr %20, align 4, !tbaa !8
  %21 = load ptr, ptr %6, align 8, !tbaa !3
  %22 = load ptr, ptr %11, align 8, !tbaa !18
  store ptr %21, ptr %22, align 8, !tbaa !3
  %23 = load ptr, ptr %9, align 8, !tbaa !20
  %24 = icmp eq ptr %23, null
  br i1 %24, label %25, label %26

25:                                               ; preds = %18
  store i32 0, ptr %5, align 4
  store i32 1, ptr %12, align 4
  br label %61

26:                                               ; preds = %18
  %27 = load ptr, ptr %6, align 8, !tbaa !3
  %28 = icmp eq ptr %27, null
  br i1 %28, label %29, label %30

29:                                               ; preds = %26
  store i32 0, ptr %5, align 4
  store i32 1, ptr %12, align 4
  br label %61

30:                                               ; preds = %26
  %31 = load ptr, ptr %6, align 8, !tbaa !3
  %32 = load i8, ptr %31, align 1, !tbaa !12
  %33 = sext i8 %32 to i32
  %34 = icmp eq i32 %33, 45
  br i1 %34, label %35, label %36

35:                                               ; preds = %30
  store i32 0, ptr %5, align 4
  store i32 1, ptr %12, align 4
  br label %61

36:                                               ; preds = %30
  %37 = load ptr, ptr %6, align 8, !tbaa !3
  %38 = load ptr, ptr %11, align 8, !tbaa !18
  %39 = load i32, ptr %8, align 4, !tbaa !8
  %40 = call i64 @strtoul(ptr noundef %37, ptr noundef %38, i32 noundef %39) #8
  %41 = load ptr, ptr %9, align 8, !tbaa !20
  store i64 %40, ptr %41, align 8, !tbaa !10
  %42 = call ptr @__errno_location() #10
  %43 = load i32, ptr %42, align 4, !tbaa !8
  %44 = icmp ne i32 %43, 0
  br i1 %44, label %59, label %45

45:                                               ; preds = %36
  %46 = load ptr, ptr %7, align 8, !tbaa !18
  %47 = icmp eq ptr %46, null
  br i1 %47, label %48, label %54

48:                                               ; preds = %45
  %49 = load ptr, ptr %11, align 8, !tbaa !18
  %50 = load ptr, ptr %49, align 8, !tbaa !3
  %51 = load i8, ptr %50, align 1, !tbaa !12
  %52 = sext i8 %51 to i32
  %53 = icmp ne i32 %52, 0
  br i1 %53, label %59, label %54

54:                                               ; preds = %48, %45
  %55 = load ptr, ptr %6, align 8, !tbaa !3
  %56 = load ptr, ptr %11, align 8, !tbaa !18
  %57 = load ptr, ptr %56, align 8, !tbaa !3
  %58 = icmp eq ptr %55, %57
  br i1 %58, label %59, label %60

59:                                               ; preds = %54, %48, %36
  store i32 0, ptr %5, align 4
  store i32 1, ptr %12, align 4
  br label %61

60:                                               ; preds = %54
  store i32 1, ptr %5, align 4
  store i32 1, ptr %12, align 4
  br label %61

61:                                               ; preds = %60, %59, %35, %29, %25
  call void @llvm.lifetime.end.p0(i64 8, ptr %11) #8
  call void @llvm.lifetime.end.p0(i64 8, ptr %10) #8
  %62 = load i32, ptr %5, align 4
  ret i32 %62
}