; Function Attrs: mustprogress nofree nounwind willreturn uwtable
define range(i32 0, 2) i32 @OPENSSL_strtoul(ptr noundef %0, ptr noundef captures(address_is_null) %1, i32 noundef %2, ptr noundef writeonly captures(address_is_null) %3) local_unnamed_addr #8 {
  %5 = alloca ptr, align 8
  call void @llvm.lifetime.start.p0(i64 8, ptr nonnull %5) #16
  %6 = icmp eq ptr %1, null
  %7 = select i1 %6, ptr %5, ptr %1
  %8 = tail call ptr @__errno_location() #17
  store i32 0, ptr %8, align 4, !tbaa !10
  store ptr %0, ptr %7, align 8, !tbaa !12
  %9 = icmp eq ptr %3, null
  %10 = icmp eq ptr %0, null
  %or.cond = or i1 %10, %9
  br i1 %or.cond, label %24, label %11

11:                                               ; preds = %4
  %12 = load i8, ptr %0, align 1, !tbaa !3
  %13 = icmp eq i8 %12, 45
  br i1 %13, label %24, label %14

14:                                               ; preds = %11
  %15 = call i64 @strtoul(ptr noundef nonnull %0, ptr noundef nonnull %7, i32 noundef %2) #16
  store i64 %15, ptr %3, align 8, !tbaa !15
  %16 = load i32, ptr %8, align 4, !tbaa !10
  %.not = icmp eq i32 %16, 0
  br i1 %.not, label %17, label %24

17:                                               ; preds = %14
  br i1 %6, label %18, label %21

18:                                               ; preds = %17
  %19 = load ptr, ptr %5, align 8, !tbaa !12
  %20 = load i8, ptr %19, align 1, !tbaa !3
  %.not17 = icmp eq i8 %20, 0
  br i1 %.not17, label %21, label %24

21:                                               ; preds = %18, %17
  %22 = load ptr, ptr %7, align 8, !tbaa !12
  %23 = icmp ne ptr %0, %22
  %spec.select = zext i1 %23 to i32
  br label %24

24:                                               ; preds = %21, %14, %18, %11, %4
  %.0 = phi i32 [ 0, %4 ], [ 0, %11 ], [ 0, %18 ], [ 0, %14 ], [ %spec.select, %21 ]
  call void @llvm.lifetime.end.p0(i64 8, ptr nonnull %5) #16
  ret i32 %.0
}